; Function Attrs: nofree norecurse nosync nounwind memory(read, argmem: readwrite, inaccessiblemem: none) uwtable
define i32 @stbtt__cff_index_count(ptr noundef captures(none) initializes((8, 12)) %0) local_unnamed_addr #3 {
  %2 = getelementptr inbounds nuw i8, ptr %0, i64 12
  %3 = load i32, ptr %2, align 4, !tbaa !10
  %4 = tail call i32 @llvm.smin.i32(i32 %3, i32 0)
  %5 = getelementptr inbounds nuw i8, ptr %0, i64 8
  store i32 %4, ptr %5, align 8, !tbaa !3
  br label %6

6:                                                ; preds = %stbtt__buf_get8.exit.i, %1
  %7 = phi i32 [ %4, %1 ], [ %16, %stbtt__buf_get8.exit.i ]
  %.07.i = phi i32 [ 0, %1 ], [ %18, %stbtt__buf_get8.exit.i ]
  %.056.i = phi i32 [ 0, %1 ], [ %17, %stbtt__buf_get8.exit.i ]
  %8 = shl i32 %.056.i, 8
  %.not.i.i = icmp slt i32 %7, %3
  br i1 %.not.i.i, label %9, label %stbtt__buf_get8.exit.i

9:                                                ; preds = %6
  %10 = load ptr, ptr %0, align 8, !tbaa !11
  %11 = add nsw i32 %7, 1
  store i32 %11, ptr %5, align 8, !tbaa !3
  %12 = sext i32 %7 to i64
  %13 = getelementptr inbounds i8, ptr %10, i64 %12
  %14 = load i8, ptr %13, align 1, !tbaa !12
  %15 = zext i8 %14 to i32
  br label %stbtt__buf_get8.exit.i

stbtt__buf_get8.exit.i:                           ; preds = %9, %6
  %16 = phi i32 [ %11, %9 ], [ %7, %6 ]
  %.0.i.i = phi i32 [ %15, %9 ], [ 0, %6 ]
  %17 = or disjoint i32 %.0.i.i, %8
  %18 = add nuw nsw i32 %.07.i, 1
  %exitcond.not.i = icmp eq i32 %18, 2
  br i1 %exitcond.not.i, label %stbtt__buf_get.exit, label %6, !llvm.loop !13

stbtt__buf_get.exit:                              ; preds = %stbtt__buf_get8.exit.i
  ret i32 %17
}